target datalayout = "e-m:e-p270:32:32-p271:32:32-p272:64:64-i64:64-i128:128-f80:128-n8:16:32:64-S128"
target triple = "x86_64-pc-linux-gnu"

%struct.t_block = type { i32, ptr, i32 }

; Function Attrs: mustprogress nounwind uwtable
define linkonce_odr noundef float @_Zli5_reale(x86_fp80 noundef %0) #4 comdat {
  %2 = alloca x86_fp80, align 16
  store x86_fp80 %0, ptr %2, align 16, !tbaa !19
  %3 = load x86_fp80, ptr %2, align 16, !tbaa !19
  %4 = fptrunc x86_fp80 %3 to float
  ret float %4
}

; Function Attrs: inlinehint mustprogress nounwind uwtable
define internal void @_ZL9copy_rvecPKfPf(ptr noundef %0, ptr noundef %1) #3 {
  %3 = alloca ptr, align 8
  %4 = alloca ptr, align 8
  store ptr %0, ptr %3, align 8, !tbaa !9
  store ptr %1, ptr %4, align 8, !tbaa !9
  %5 = load ptr, ptr %3, align 8, !tbaa !9
  %6 = getelementptr inbounds float, ptr %5, i64 0
  %7 = load float, ptr %6, align 4, !tbaa !17
  %8 = load ptr, ptr %4, align 8, !tbaa !9
  %9 = getelementptr inbounds float, ptr %8, i64 0
  store float %7, ptr %9, align 4, !tbaa !17
  %10 = load ptr, ptr %3, align 8, !tbaa !9
  %11 = getelementptr inbounds float, ptr %10, i64 1
  %12 = load float, ptr %11, align 4, !tbaa !17
  %13 = load ptr, ptr %4, align 8, !tbaa !9
  %14 = getelementptr inbounds float, ptr %13, i64 1
  store float %12, ptr %14, align 4, !tbaa !17
  %15 = load ptr, ptr %3, align 8, !tbaa !9
  %16 = getelementptr inbounds float, ptr %15, i64 2
  %17 = load float, ptr %16, align 4, !tbaa !17
  %18 = load ptr, ptr %4, align 8, !tbaa !9
  %19 = getelementptr inbounds float, ptr %18, i64 2
  store float %17, ptr %19, align 4, !tbaa !17
  ret void
}

; Function Attrs: inlinehint mustprogress nounwind uwtable
define internal void @_ZL8rvec_incPfPKf(ptr noundef %0, ptr noundef %1) #3 {
  %3 = alloca ptr, align 8
  %4 = alloca ptr, align 8
  %5 = alloca float, align 4
  %6 = alloca float, align 4
  %7 = alloca float, align 4
  store ptr %0, ptr %3, align 8, !tbaa !9
  store ptr %1, ptr %4, align 8, !tbaa !9
  call void @llvm.lifetime.start.p0(i64 4, ptr %5) #8
  call void @llvm.lifetime.start.p0(i64 4, ptr %6) #8
  call void @llvm.lifetime.start.p0(i64 4, ptr %7) #8
  %8 = load ptr, ptr %3, align 8, !tbaa !9
  %9 = getelementptr inbounds float, ptr %8, i64 0
  %10 = load float, ptr %9, align 4, !tbaa !17
  %11 = load ptr, ptr %4, align 8, !tbaa !9
  %12 = getelementptr inbounds float, ptr %11, i64 0
  %13 = load float, ptr %12, align 4, !tbaa !17
  %14 = fadd float %10, %13
  store float %14, ptr %5, align 4, !tbaa !17
  %15 = load ptr, ptr %3, align 8, !tbaa !9
  %16 = getelementptr inbounds float, ptr %15, i64 1
  %17 = load float, ptr %16, align 4, !tbaa !17
  %18 = load ptr, ptr %4, align 8, !tbaa !9
  %19 = getelementptr inbounds float, ptr %18, i64 1
  %20 = load float, ptr %19, align 4, !tbaa !17
  %21 = fadd float %17, %20
  store float %21, ptr %6, align 4, !tbaa !17
  %22 = load ptr, ptr %3, align 8, !tbaa !9
  %23 = getelementptr inbounds float, ptr %22, i64 2
  %24 = load float, ptr %23, align 4, !tbaa !17
  %25 = load ptr, ptr %4, align 8, !tbaa !9
  %26 = getelementptr inbounds float, ptr %25, i64 2
  %27 = load float, ptr %26, align 4, !tbaa !17
  %28 = fadd float %24, %27
  store float %28, ptr %7, align 4, !tbaa !17
  %29 = load float, ptr %5, align 4, !tbaa !17
  %30 = load ptr, ptr %3, align 8, !tbaa !9
  %31 = getelementptr inbounds float, ptr %30, i64 0
  store float %29, ptr %31, align 4, !tbaa !17
  %32 = load float, ptr %6, align 4, !tbaa !17
  %33 = load ptr, ptr %3, align 8, !tbaa !9
  %34 = getelementptr inbounds float, ptr %33, i64 1
  store float %32, ptr %34, align 4, !tbaa !17
  %35 = load float, ptr %7, align 4, !tbaa !17
  %36 = load ptr, ptr %3, align 8, !tbaa !9
  %37 = getelementptr inbounds float, ptr %36, i64 2
  store float %35, ptr %37, align 4, !tbaa !17
  call void @llvm.lifetime.end.p0(i64 4, ptr %7) #8
  call void @llvm.lifetime.end.p0(i64 4, ptr %6) #8
  call void @llvm.lifetime.end.p0(i64 4, ptr %5) #8
  ret void
}

; Function Attrs: inlinehint mustprogress uwtable
define internal void @_ZL10clear_rvecPf(ptr noundef %0) #2 {
  %2 = alloca ptr, align 8
  store ptr %0, ptr %2, align 8, !tbaa !9
  %3 = call noundef float @_Zli5_reale(x86_fp80 noundef 0xK00000000000000000000)
  %4 = load ptr, ptr %2, align 8, !tbaa !9
  %5 = getelementptr inbounds float, ptr %4, i64 0
  store float %3, ptr %5, align 4, !tbaa !17
  %6 = call noundef float @_Zli5_reale(x86_fp80 noundef 0xK00000000000000000000)
  %7 = load ptr, ptr %2, align 8, !tbaa !9
  %8 = getelementptr inbounds float, ptr %7, i64 1
  store float %6, ptr %8, align 4, !tbaa !17
  %9 = call noundef float @_Zli5_reale(x86_fp80 noundef 0xK00000000000000000000)
  %10 = load ptr, ptr %2, align 8, !tbaa !9
  %11 = getelementptr inbounds float, ptr %10, i64 2
  store float %9, ptr %11, align 4, !tbaa !17
  ret void
}

; Function Attrs: mustprogress uwtable
define void @_Z20gmx_calc_com_f_blockPK10gmx_mtop_tPA3_fPK7t_blockPKiS3_(ptr noundef %0, ptr noundef %1, ptr noundef %2, ptr noundef %3, ptr noundef %4) #0 {
  %6 = alloca ptr, align 8
  %7 = alloca ptr, align 8
  %8 = alloca ptr, align 8
  %9 = alloca ptr, align 8
  %10 = alloca ptr, align 8
  %11 = alloca i32, align 4
  %12 = alloca i32, align 4
  %13 = alloca [3 x float], align 4
  %14 = alloca i32, align 4
  %15 = alloca i32, align 4
  store ptr %0, ptr %6, align 8, !tbaa !4
  store ptr %1, ptr %7, align 8, !tbaa !9
  store ptr %2, ptr %8, align 8, !tbaa !93
  store ptr %3, ptr %9, align 8, !tbaa !13
  store ptr %4, ptr %10, align 8, !tbaa !9
  call void @llvm.lifetime.start.p0(i64 4, ptr %11) #8
  store i32 0, ptr %11, align 4, !tbaa !11
  br label %16

16:                                               ; preds = %66, %5
  %17 = load i32, ptr %11, align 4, !tbaa !11
  %18 = load ptr, ptr %8, align 8, !tbaa !93
  %19 = getelementptr inbounds nuw %struct.t_block, ptr %18, i32 0, i32 0
  %20 = load i32, ptr %19, align 8, !tbaa !95
  %21 = icmp slt i32 %17, %20
  br i1 %21, label %23, label %22

22:                                               ; preds = %16
  store i32 2, ptr %12, align 4
  call void @llvm.lifetime.end.p0(i64 4, ptr %11) #8
  br label %69

23:                                               ; preds = %16
  call void @llvm.lifetime.start.p0(i64 12, ptr %13) #8
  %24 = getelementptr inbounds [3 x float], ptr %13, i64 0, i64 0
  call void @_ZL10clear_rvecPf(ptr noundef %24)
  call void @llvm.lifetime.start.p0(i64 4, ptr %14) #8
  %25 = load ptr, ptr %8, align 8, !tbaa !93
  %26 = getelementptr inbounds nuw %struct.t_block, ptr %25, i32 0, i32 1
  %27 = load ptr, ptr %26, align 8, !tbaa !97
  %28 = load i32, ptr %11, align 4, !tbaa !11
  %29 = sext i32 %28 to i64
  %30 = getelementptr inbounds i32, ptr %27, i64 %29
  %31 = load i32, ptr %30, align 4, !tbaa !11
  store i32 %31, ptr %14, align 4, !tbaa !11
  br label %32

32:                                               ; preds = %56, %23
  %33 = load i32, ptr %14, align 4, !tbaa !11
  %34 = load ptr, ptr %8, align 8, !tbaa !93
  %35 = getelementptr inbounds nuw %struct.t_block, ptr %34, i32 0, i32 1
  %36 = load ptr, ptr %35, align 8, !tbaa !97
  %37 = load i32, ptr %11, align 4, !tbaa !11
  %38 = add nsw i32 %37, 1
  %39 = sext i32 %38 to i64
  %40 = getelementptr inbounds i32, ptr %36, i64 %39
  %41 = load i32, ptr %40, align 4, !tbaa !11
  %42 = icmp slt i32 %33, %41
  br i1 %42, label %44, label %43

43:                                               ; preds = %32
  store i32 5, ptr %12, align 4
  call void @llvm.lifetime.end.p0(i64 4, ptr %14) #8
  br label %59

44:                                               ; preds = %32
  call void @llvm.lifetime.start.p0(i64 4, ptr %15) #8
  %45 = load ptr, ptr %9, align 8, !tbaa !13
  %46 = load i32, ptr %14, align 4, !tbaa !11
  %47 = sext i32 %46 to i64
  %48 = getelementptr inbounds i32, ptr %45, i64 %47
  %49 = load i32, ptr %48, align 4, !tbaa !11
  store i32 %49, ptr %15, align 4, !tbaa !11
  %50 = getelementptr inbounds [3 x float], ptr %13, i64 0, i64 0
  %51 = load ptr, ptr %7, align 8, !tbaa !9
  %52 = load i32, ptr %15, align 4, !tbaa !11
  %53 = sext i32 %52 to i64
  %54 = getelementptr inbounds [3 x float], ptr %51, i64 %53
  %55 = getelementptr inbounds [3 x float], ptr %54, i64 0, i64 0
  call void @_ZL8rvec_incPfPKf(ptr noundef %50, ptr noundef %55)
  call void @llvm.lifetime.end.p0(i64 4, ptr %15) #8
  br label %56

56:                                               ; preds = %44
  %57 = load i32, ptr %14, align 4, !tbaa !11
  %58 = add nsw i32 %57, 1
  store i32 %58, ptr %14, align 4, !tbaa !11
  br label %32, !llvm.loop !106

59:                                               ; preds = %43
  %60 = getelementptr inbounds [3 x float], ptr %13, i64 0, i64 0
  %61 = load ptr, ptr %10, align 8, !tbaa !9
  %62 = load i32, ptr %11, align 4, !tbaa !11
  %63 = sext i32 %62 to i64
  %64 = getelementptr inbounds [3 x float], ptr %61, i64 %63
  %65 = getelementptr inbounds [3 x float], ptr %64, i64 0, i64 0
  call void @_ZL9copy_rvecPKfPf(ptr noundef %60, ptr noundef %65)
  call void @llvm.lifetime.end.p0(i64 12, ptr %13) #8
  br label %66

66:                                               ; preds = %59
  %67 = load i32, ptr %11, align 4, !tbaa !11
  %68 = add nsw i32 %67, 1
  store i32 %68, ptr %11, align 4, !tbaa !11
  br label %16, !llvm.loop !107

69:                                               ; preds = %22
  ret void
}

; Function Attrs: mustprogress uwtable
define void @_Z21gmx_calc_comg_f_blockPK10gmx_mtop_tPA3_fPK7t_blockPKibS3_(ptr noundef %0, ptr noundef %1, ptr noundef %2, ptr noundef %3, i1 noundef zeroext %4, ptr noundef %5) #0 {
  %7 = alloca ptr, align 8
  %8 = alloca ptr, align 8
  %9 = alloca ptr, align 8
  %10 = alloca ptr, align 8
  %11 = alloca i8, align 1
  %12 = alloca ptr, align 8
  store ptr %0, ptr %7, align 8, !tbaa !4
  store ptr %1, ptr %8, align 8, !tbaa !9
  store ptr %2, ptr %9, align 8, !tbaa !93
  store ptr %3, ptr %10, align 8, !tbaa !13
  %13 = zext i1 %4 to i8
  store i8 %13, ptr %11, align 1, !tbaa !80
  store ptr %5, ptr %12, align 8, !tbaa !9
  %14 = load i8, ptr %11, align 1, !tbaa !80, !range !81, !noundef !82
  %15 = trunc i8 %14 to i1
  br i1 %15, label %16, label %22

16:                                               ; preds = %6
  %17 = load ptr, ptr %7, align 8, !tbaa !4
  %18 = load ptr, ptr %8, align 8, !tbaa !9
  %19 = load ptr, ptr %9, align 8, !tbaa !93
  %20 = load ptr, ptr %10, align 8, !tbaa !13
  %21 = load ptr, ptr %12, align 8, !tbaa !9
  call void @_Z20gmx_calc_com_f_blockPK10gmx_mtop_tPA3_fPK7t_blockPKiS3_(ptr noundef %17, ptr noundef %18, ptr noundef %19, ptr noundef %20, ptr noundef %21)
  br label %28

22:                                               ; preds = %6
  %23 = load ptr, ptr %7, align 8, !tbaa !4
  %24 = load ptr, ptr %8, align 8, !tbaa !9
  %25 = load ptr, ptr %9, align 8, !tbaa !93
  %26 = load ptr, ptr %10, align 8, !tbaa !13
  %27 = load ptr, ptr %12, align 8, !tbaa !9
  call void @_Z20gmx_calc_cog_f_blockPK10gmx_mtop_tPA3_fPK7t_blockPKiS3_(ptr noundef %23, ptr noundef %24, ptr noundef %25, ptr noundef %26, ptr noundef %27)
  br label %28

28:                                               ; preds = %22, %16
  ret void
}