; Function Attrs: mustprogress uwtable
define void @_Z21gmx_calc_comg_f_blockPK10gmx_mtop_tPA3_fPK7t_blockPKibS3_(ptr noundef %0, ptr noundef readonly captures(none) %1, ptr noundef readonly captures(none) %2, ptr noundef readonly captures(none) %3, i1 noundef zeroext %4, ptr noundef writeonly captures(none) %5) local_unnamed_addr #2 {
  br i1 %4, label %7, label %33

7:                                                ; preds = %6
  %8 = load i32, ptr %2, align 8, !tbaa !68
  %9 = icmp sgt i32 %8, 0
  br i1 %9, label %.lr.ph27.i, label %_Z20gmx_calc_com_f_blockPK10gmx_mtop_tPA3_fPK7t_blockPKiS3_.exit

.lr.ph27.i:                                       ; preds = %7
  %10 = getelementptr inbounds nuw i8, ptr %2, i64 8
  %11 = load ptr, ptr %10, align 8, !tbaa !70
  %wide.trip.count35.i = zext nneg i32 %8 to i64
  %.pre.i = load i32, ptr %11, align 4, !tbaa !8
  br label %12

12:                                               ; preds = %._crit_edge.i, %.lr.ph27.i
  %13 = phi i32 [ %.pre.i, %.lr.ph27.i ], [ %15, %._crit_edge.i ]
  %indvars.iv32.i = phi i64 [ 0, %.lr.ph27.i ], [ %indvars.iv.next33.i, %._crit_edge.i ]
  %indvars.iv.next33.i = add nuw nsw i64 %indvars.iv32.i, 1
  %14 = getelementptr inbounds nuw i32, ptr %11, i64 %indvars.iv.next33.i
  %15 = load i32, ptr %14, align 4, !tbaa !8
  %16 = icmp slt i32 %13, %15
  br i1 %16, label %.lr.ph.preheader.i, label %._crit_edge.i

.lr.ph.preheader.i:                               ; preds = %12
  %17 = sext i32 %13 to i64
  %wide.trip.count.i = sext i32 %15 to i64
  br label %.lr.ph.i

._crit_edge.i:                                    ; preds = %.lr.ph.i, %12
  %.sroa.10.0.lcssa.i = phi float [ 0.000000e+00, %12 ], [ %32, %.lr.ph.i ]
  %.sroa.6.0.lcssa.i = phi float [ 0.000000e+00, %12 ], [ %29, %.lr.ph.i ]
  %.sroa.0.0.lcssa.i = phi float [ 0.000000e+00, %12 ], [ %26, %.lr.ph.i ]
  %18 = getelementptr inbounds nuw [3 x float], ptr %5, i64 %indvars.iv32.i
  store float %.sroa.0.0.lcssa.i, ptr %18, align 4, !tbaa !4
  %19 = getelementptr inbounds nuw i8, ptr %18, i64 4
  store float %.sroa.6.0.lcssa.i, ptr %19, align 4, !tbaa !4
  %20 = getelementptr inbounds nuw i8, ptr %18, i64 8
  store float %.sroa.10.0.lcssa.i, ptr %20, align 4, !tbaa !4
  %exitcond36.not.i = icmp eq i64 %indvars.iv.next33.i, %wide.trip.count35.i
  br i1 %exitcond36.not.i, label %_Z20gmx_calc_com_f_blockPK10gmx_mtop_tPA3_fPK7t_blockPKiS3_.exit, label %12, !llvm.loop !79

.lr.ph.i:                                         ; preds = %.lr.ph.i, %.lr.ph.preheader.i
  %indvars.iv.i = phi i64 [ %17, %.lr.ph.preheader.i ], [ %indvars.iv.next.i, %.lr.ph.i ]
  %.sroa.0.020.i = phi float [ 0.000000e+00, %.lr.ph.preheader.i ], [ %26, %.lr.ph.i ]
  %.sroa.6.019.i = phi float [ 0.000000e+00, %.lr.ph.preheader.i ], [ %29, %.lr.ph.i ]
  %.sroa.10.018.i = phi float [ 0.000000e+00, %.lr.ph.preheader.i ], [ %32, %.lr.ph.i ]
  %21 = getelementptr inbounds i32, ptr %3, i64 %indvars.iv.i
  %22 = load i32, ptr %21, align 4, !tbaa !8
  %23 = sext i32 %22 to i64
  %24 = getelementptr inbounds [3 x float], ptr %1, i64 %23
  %25 = load float, ptr %24, align 4, !tbaa !4
  %26 = fadd float %.sroa.0.020.i, %25
  %27 = getelementptr inbounds nuw i8, ptr %24, i64 4
  %28 = load float, ptr %27, align 4, !tbaa !4
  %29 = fadd float %.sroa.6.019.i, %28
  %30 = getelementptr inbounds nuw i8, ptr %24, i64 8
  %31 = load float, ptr %30, align 4, !tbaa !4
  %32 = fadd float %.sroa.10.018.i, %31
  %indvars.iv.next.i = add nsw i64 %indvars.iv.i, 1
  %exitcond.not.i = icmp eq i64 %indvars.iv.next.i, %wide.trip.count.i
  br i1 %exitcond.not.i, label %._crit_edge.i, label %.lr.ph.i, !llvm.loop !80

33:                                               ; preds = %6
  tail call void @_Z20gmx_calc_cog_f_blockPK10gmx_mtop_tPA3_fPK7t_blockPKiS3_(ptr noundef %0, ptr noundef %1, ptr noundef %2, ptr noundef %3, ptr noundef %5)
  br label %_Z20gmx_calc_com_f_blockPK10gmx_mtop_tPA3_fPK7t_blockPKiS3_.exit

_Z20gmx_calc_com_f_blockPK10gmx_mtop_tPA3_fPK7t_blockPKiS3_.exit: ; preds = %._crit_edge.i, %7, %33
  ret void
}